ccopy_reg
_reconstructor
p0
(cmain
game
p1
c__builtin__
object
p2
Ntp3
Rp4
(dp5
S'username'
p6
S'zjw'
p7
sS'name'
p8
S'zjw'
p9
sS'gold'
p10
I1500
sS'acm'
p11
(lp12
sS'sex'
p13
S'man'
p14
sS'value'
p15
I10000
sS'month'
p16
I200
sS'occupation'
p17
(lp18
S'newbee'
p19
asb.